; Function Attrs: mustprogress nounwind uwtable
define internal fastcc void @_ZN11flatbuffers12_GLOBAL__N_116MakeBinaryRegionEmmNS_16BinaryRegionTypeEmmNS_19BinaryRegionCommentE(ptr dead_on_unwind noalias nonnull writable align 8 initializes((40, 44)) %0, i64 noundef %1, i64 noundef %2, i32 noundef range(i32 0, 19) %3, i64 noundef %4, i64 noundef %5, ptr noundef nonnull %6) unnamed_addr #6 personality ptr @__gxx_personality_v0 {
  %8 = getelementptr inbounds nuw i8, ptr %0, i64 24
  %9 = getelementptr inbounds nuw i8, ptr %0, i64 48
  %10 = getelementptr inbounds nuw i8, ptr %0, i64 64
  %11 = getelementptr inbounds nuw i8, ptr %0, i64 40
  store i32 0, ptr %11, align 8
  store ptr %10, ptr %9, align 8, !tbaa !58
  %12 = getelementptr inbounds nuw i8, ptr %0, i64 56
  store i64 0, ptr %12, align 8, !tbaa !59
  store i8 0, ptr %10, align 8, !tbaa !60
  %13 = getelementptr inbounds nuw i8, ptr %0, i64 80
  store i32 0, ptr %13, align 8, !tbaa !62
  %14 = getelementptr inbounds nuw i8, ptr %0, i64 88
  %15 = getelementptr inbounds nuw i8, ptr %0, i64 104
  store ptr %15, ptr %14, align 8, !tbaa !58
  %16 = getelementptr inbounds nuw i8, ptr %0, i64 96
  store i64 0, ptr %16, align 8, !tbaa !59
  store i8 0, ptr %15, align 8, !tbaa !60
  %17 = getelementptr inbounds nuw i8, ptr %0, i64 120
  %18 = getelementptr inbounds nuw i8, ptr %0, i64 136
  store ptr %18, ptr %17, align 8, !tbaa !58
  %19 = getelementptr inbounds nuw i8, ptr %0, i64 128
  store i64 0, ptr %19, align 8, !tbaa !59
  store i8 0, ptr %18, align 8, !tbaa !60
  %20 = getelementptr inbounds nuw i8, ptr %0, i64 152
  store i64 0, ptr %20, align 8, !tbaa !61
  store i64 %1, ptr %0, align 8, !tbaa !67
  %21 = getelementptr inbounds nuw i8, ptr %0, i64 8
  store i64 %2, ptr %21, align 8, !tbaa !70
  %22 = getelementptr inbounds nuw i8, ptr %0, i64 16
  store i32 %3, ptr %22, align 8, !tbaa !71
  store i64 %4, ptr %8, align 8, !tbaa !86
  %23 = getelementptr inbounds nuw i8, ptr %0, i64 32
  store i64 %5, ptr %23, align 8, !tbaa !87
  %24 = getelementptr inbounds nuw i8, ptr %0, i64 40
  %25 = tail call noundef nonnull align 8 dereferenceable(120) ptr @_ZN11flatbuffers19BinaryRegionCommentaSEOS0_(ptr noundef nonnull align 8 dereferenceable(120) %24, ptr noundef nonnull align 8 dereferenceable(120) %6) #31
  ret void
}